target datalayout = "e-m:e-p270:32:32-p271:32:32-p272:64:64-i64:64-i128:128-f80:128-n8:16:32:64-S128"
target triple = "x86_64-pc-linux-gnu"

%struct._address = type { i32, i32, ptr, ptr }
%struct._packet_info = type { ptr, ptr, i32, i32, %struct.nstime_t, %struct.nstime_t, %struct.nstime_t, i32, ptr, ptr, ptr, ptr, %struct._address, %struct._address, %struct._address, %struct._address, %struct._address, %struct._address, i32, ptr, i32, %struct.anon.3, i32, i32, i32, i32, ptr, i32, ptr, ptr, i16, i16, i32, i32, i16, i32, i32, ptr, ptr, ptr, i8, i8, i16, i16, i16, i32, i16, i16, ptr, ptr, ptr, ptr, ptr, i32 }
%struct.nstime_t = type { i64, i32 }
%struct.anon.3 = type { i8, [3 x i8] }

@hf_epl_pres_stat_ms = internal global i32 0, align 4
@hf_epl_pres_stat_cs = internal global i32 0, align 4
@hf_epl_pres_flags = internal global i32 0, align 4
@hf_epl_pres_pr = internal global i32 0, align 4
@hf_epl_pres_rs = internal global i32 0, align 4
@hf_epl_pres_sls = internal global i32 0, align 4
@hf_epl_pres_fls = internal global i32 0, align 4
@hf_epl_pres_pdov = internal global i32 0, align 4
@hf_epl_pres_size = internal global i32 0, align 4
@ett_epl_pres = internal global i32 0, align 4
@dissect_epl_pres.res_flags = internal constant [4 x ptr] [ptr @hf_epl_pres_ms, ptr @hf_epl_pres_en, ptr @hf_epl_pres_rd, ptr null], align 16
@.str.688 = private unnamed_addr constant [6 x i8] c"[%4d]\00", align 1
@.str.689 = private unnamed_addr constant [37 x i8] c"  F:RD=%d,EN=%d,RS=%d,PR=%d  V=%d.%d\00", align 1
@.str.690 = private unnamed_addr constant [5 x i8] c"  %s\00", align 1
@.str.691 = private unnamed_addr constant [12 x i8] c"Unknown(%d)\00", align 1

; Function Attrs: nounwind uwtable
define internal i32 @dissect_epl_pres(ptr noundef %0, ptr noundef %1, ptr noundef %2, ptr noundef %3, i32 noundef %4) #0 {
  %6 = alloca ptr, align 8
  %7 = alloca ptr, align 8
  %8 = alloca ptr, align 8
  %9 = alloca ptr, align 8
  %10 = alloca i32, align 4
  %11 = alloca i16, align 2
  %12 = alloca i8, align 1
  %13 = alloca i8, align 1
  %14 = alloca i8, align 1
  %15 = alloca i8, align 1
  store ptr %0, ptr %6, align 8
  store ptr %1, ptr %7, align 8
  store ptr %2, ptr %8, align 8
  store ptr %3, ptr %9, align 8
  store i32 %4, ptr %10, align 4
  %16 = load ptr, ptr %8, align 8
  %17 = load i32, ptr %10, align 4
  %18 = call zeroext i8 @tvb_get_guint8(ptr noundef %16, i32 noundef %17)
  store i8 %18, ptr %13, align 1
  %19 = load ptr, ptr %9, align 8
  %20 = getelementptr inbounds %struct._packet_info, ptr %19, i32 0, i32 23
  %21 = load i32, ptr %20, align 4
  %22 = icmp ne i32 %21, 240
  br i1 %22, label %23, label %29

23:                                               ; preds = %5
  %24 = load ptr, ptr %7, align 8
  %25 = load i32, ptr @hf_epl_pres_stat_cs, align 4
  %26 = load ptr, ptr %8, align 8
  %27 = load i32, ptr %10, align 4
  %28 = call ptr @proto_tree_add_item(ptr noundef %24, i32 noundef %25, ptr noundef %26, i32 noundef %27, i32 noundef 1, i32 noundef -2147483648)
  br label %35

29:                                               ; preds = %5
  %30 = load ptr, ptr %7, align 8
  %31 = load i32, ptr @hf_epl_pres_stat_ms, align 4
  %32 = load ptr, ptr %8, align 8
  %33 = load i32, ptr %10, align 4
  %34 = call ptr @proto_tree_add_item(ptr noundef %30, i32 noundef %31, ptr noundef %32, i32 noundef %33, i32 noundef 1, i32 noundef -2147483648)
  br label %35

35:                                               ; preds = %29, %23
  %36 = load i32, ptr %10, align 4
  %37 = add i32 %36, 1
  store i32 %37, ptr %10, align 4
  %38 = load ptr, ptr %8, align 8
  %39 = load i32, ptr %10, align 4
  %40 = call zeroext i8 @tvb_get_guint8(ptr noundef %38, i32 noundef %39)
  store i8 %40, ptr %14, align 1
  %41 = load ptr, ptr %7, align 8
  %42 = load ptr, ptr %8, align 8
  %43 = load i32, ptr %10, align 4
  %44 = load i32, ptr @hf_epl_pres_flags, align 4
  %45 = load i32, ptr @ett_epl_pres, align 4
  %46 = call ptr @proto_tree_add_bitmask(ptr noundef %41, ptr noundef %42, i32 noundef %43, i32 noundef %44, i32 noundef %45, ptr noundef @dissect_epl_pres.res_flags, i32 noundef 0)
  %47 = load i32, ptr %10, align 4
  %48 = add i32 %47, 1
  store i32 %48, ptr %10, align 4
  %49 = load ptr, ptr %8, align 8
  %50 = load i32, ptr %10, align 4
  %51 = call zeroext i8 @tvb_get_guint8(ptr noundef %49, i32 noundef %50)
  store i8 %51, ptr %15, align 1
  %52 = load ptr, ptr %7, align 8
  %53 = load i32, ptr @hf_epl_pres_fls, align 4
  %54 = load ptr, ptr %8, align 8
  %55 = load i32, ptr %10, align 4
  %56 = call ptr @proto_tree_add_item(ptr noundef %52, i32 noundef %53, ptr noundef %54, i32 noundef %55, i32 noundef 1, i32 noundef -2147483648)
  %57 = load ptr, ptr %7, align 8
  %58 = load i32, ptr @hf_epl_pres_sls, align 4
  %59 = load ptr, ptr %8, align 8
  %60 = load i32, ptr %10, align 4
  %61 = call ptr @proto_tree_add_item(ptr noundef %57, i32 noundef %58, ptr noundef %59, i32 noundef %60, i32 noundef 1, i32 noundef -2147483648)
  %62 = load ptr, ptr %7, align 8
  %63 = load i32, ptr @hf_epl_pres_pr, align 4
  %64 = load ptr, ptr %8, align 8
  %65 = load i32, ptr %10, align 4
  %66 = call ptr @proto_tree_add_item(ptr noundef %62, i32 noundef %63, ptr noundef %64, i32 noundef %65, i32 noundef 1, i32 noundef -2147483648)
  %67 = load ptr, ptr %7, align 8
  %68 = load i32, ptr @hf_epl_pres_rs, align 4
  %69 = load ptr, ptr %8, align 8
  %70 = load i32, ptr %10, align 4
  %71 = call ptr @proto_tree_add_item(ptr noundef %67, i32 noundef %68, ptr noundef %69, i32 noundef %70, i32 noundef 1, i32 noundef -2147483648)
  %72 = load i32, ptr %10, align 4
  %73 = add i32 %72, 1
  store i32 %73, ptr %10, align 4
  %74 = load ptr, ptr %8, align 8
  %75 = load i32, ptr %10, align 4
  %76 = call zeroext i8 @tvb_get_guint8(ptr noundef %74, i32 noundef %75)
  store i8 %76, ptr %12, align 1
  %77 = load ptr, ptr %7, align 8
  %78 = load i32, ptr @hf_epl_pres_pdov, align 4
  %79 = load ptr, ptr %8, align 8
  %80 = load i32, ptr %10, align 4
  %81 = call ptr @proto_tree_add_item(ptr noundef %77, i32 noundef %78, ptr noundef %79, i32 noundef %80, i32 noundef 1, i32 noundef -2147483648)
  %82 = load i32, ptr %10, align 4
  %83 = add i32 %82, 2
  store i32 %83, ptr %10, align 4
  %84 = load ptr, ptr %8, align 8
  %85 = load i32, ptr %10, align 4
  %86 = call zeroext i16 @tvb_get_letohs(ptr noundef %84, i32 noundef %85)
  store i16 %86, ptr %11, align 2
  %87 = load ptr, ptr %7, align 8
  %88 = load i32, ptr @hf_epl_pres_size, align 4
  %89 = load ptr, ptr %8, align 8
  %90 = load i32, ptr %10, align 4
  %91 = load i16, ptr %11, align 2
  %92 = zext i16 %91 to i32
  %93 = call ptr @proto_tree_add_uint(ptr noundef %87, i32 noundef %88, ptr noundef %89, i32 noundef %90, i32 noundef 2, i32 noundef %92)
  %94 = load ptr, ptr %9, align 8
  %95 = getelementptr inbounds %struct._packet_info, ptr %94, i32 0, i32 1
  %96 = load ptr, ptr %95, align 8
  %97 = load i16, ptr %11, align 2
  %98 = zext i16 %97 to i32
  call void (ptr, i32, ptr, ...) @col_append_fstr(ptr noundef %96, i32 noundef 25, ptr noundef @.str.688, i32 noundef %98)
  %99 = load ptr, ptr %9, align 8
  %100 = getelementptr inbounds %struct._packet_info, ptr %99, i32 0, i32 1
  %101 = load ptr, ptr %100, align 8
  %102 = load i8, ptr %14, align 1
  %103 = zext i8 %102 to i32
  %104 = and i32 1, %103
  %105 = ashr i32 %104, 0
  %106 = load i8, ptr %14, align 1
  %107 = zext i8 %106 to i32
  %108 = and i32 16, %107
  %109 = ashr i32 %108, 4
  %110 = load i8, ptr %15, align 1
  %111 = zext i8 %110 to i32
  %112 = and i32 7, %111
  %113 = load i8, ptr %15, align 1
  %114 = zext i8 %113 to i32
  %115 = and i32 56, %114
  %116 = ashr i32 %115, 3
  %117 = load i8, ptr %12, align 1
  %118 = zext i8 %117 to i32
  %119 = and i32 %118, 240
  %120 = ashr i32 %119, 4
  %121 = load i8, ptr %12, align 1
  %122 = zext i8 %121 to i32
  %123 = and i32 %122, 15
  call void (ptr, i32, ptr, ...) @col_append_fstr(ptr noundef %101, i32 noundef 25, ptr noundef @.str.689, i32 noundef %105, i32 noundef %109, i32 noundef %112, i32 noundef %116, i32 noundef %120, i32 noundef %123)
  %124 = load ptr, ptr %9, align 8
  %125 = getelementptr inbounds %struct._packet_info, ptr %124, i32 0, i32 23
  %126 = load i32, ptr %125, align 4
  %127 = icmp ne i32 %126, 240
  br i1 %127, label %128, label %135

128:                                              ; preds = %35
  %129 = load ptr, ptr %9, align 8
  %130 = getelementptr inbounds %struct._packet_info, ptr %129, i32 0, i32 1
  %131 = load ptr, ptr %130, align 8
  %132 = load i8, ptr %13, align 1
  %133 = zext i8 %132 to i32
  %134 = call ptr @val_to_str(i32 noundef %133, ptr noundef @epl_nmt_cs_vals, ptr noundef @.str.691)
  call void (ptr, i32, ptr, ...) @col_append_fstr(ptr noundef %131, i32 noundef 25, ptr noundef @.str.690, ptr noundef %134)
  br label %142

135:                                              ; preds = %35
  %136 = load ptr, ptr %9, align 8
  %137 = getelementptr inbounds %struct._packet_info, ptr %136, i32 0, i32 1
  %138 = load ptr, ptr %137, align 8
  %139 = load i8, ptr %13, align 1
  %140 = zext i8 %139 to i32
  %141 = call ptr @val_to_str(i32 noundef %140, ptr noundef @epl_nmt_ms_vals, ptr noundef @.str.691)
  call void (ptr, i32, ptr, ...) @col_append_fstr(ptr noundef %138, i32 noundef 25, ptr noundef @.str.690, ptr noundef %141)
  br label %142

142:                                              ; preds = %135, %128
  %143 = load i32, ptr %10, align 4
  %144 = add i32 %143, 2
  store i32 %144, ptr %10, align 4
  %145 = load ptr, ptr %6, align 8
  %146 = load ptr, ptr %7, align 8
  %147 = load ptr, ptr %8, align 8
  %148 = load ptr, ptr %9, align 8
  %149 = load i32, ptr %10, align 4
  %150 = load i16, ptr %11, align 2
  %151 = zext i16 %150 to i32
  %152 = call i32 @dissect_epl_pdo(ptr noundef %145, ptr noundef %146, ptr noundef %147, ptr noundef %148, i32 noundef %149, i32 noundef %151, i8 noundef zeroext 4)
  store i32 %152, ptr %10, align 4
  %153 = load i32, ptr %10, align 4
  ret i32 %153
}