; Function Attrs: nounwind uwtable
define internal fastcc i32 @dissect_epl_pres(ptr noundef readonly captures(none) %0, ptr noundef %1, ptr noundef %2, ptr noundef %3) unnamed_addr #2 {
  %5 = tail call zeroext i8 @tvb_get_guint8(ptr noundef %2, i32 noundef 3) #18
  %6 = getelementptr inbounds nuw i8, ptr %3, i64 284
  %7 = load i32, ptr %6, align 4
  %.not = icmp eq i32 %7, 240
  %hf_epl_pres_stat_ms.val = load i32, ptr @hf_epl_pres_stat_ms, align 4
  %hf_epl_pres_stat_cs.val = load i32, ptr @hf_epl_pres_stat_cs, align 4
  %8 = select i1 %.not, i32 %hf_epl_pres_stat_ms.val, i32 %hf_epl_pres_stat_cs.val
  %9 = tail call ptr @proto_tree_add_item(ptr noundef %1, i32 noundef %8, ptr noundef %2, i32 noundef 3, i32 noundef 1, i32 noundef -2147483648) #18
  %10 = tail call zeroext i8 @tvb_get_guint8(ptr noundef %2, i32 noundef 4) #18
  %11 = load i32, ptr @hf_epl_pres_flags, align 4
  %12 = load i32, ptr @ett_epl_pres, align 4
  %13 = tail call ptr @proto_tree_add_bitmask(ptr noundef %1, ptr noundef %2, i32 noundef 4, i32 noundef %11, i32 noundef %12, ptr noundef nonnull @dissect_epl_pres.res_flags, i32 noundef 0) #18
  %14 = tail call zeroext i8 @tvb_get_guint8(ptr noundef %2, i32 noundef 5) #18
  %15 = load i32, ptr @hf_epl_pres_fls, align 4
  %16 = tail call ptr @proto_tree_add_item(ptr noundef %1, i32 noundef %15, ptr noundef %2, i32 noundef 5, i32 noundef 1, i32 noundef -2147483648) #18
  %17 = load i32, ptr @hf_epl_pres_sls, align 4
  %18 = tail call ptr @proto_tree_add_item(ptr noundef %1, i32 noundef %17, ptr noundef %2, i32 noundef 5, i32 noundef 1, i32 noundef -2147483648) #18
  %19 = load i32, ptr @hf_epl_pres_pr, align 4
  %20 = tail call ptr @proto_tree_add_item(ptr noundef %1, i32 noundef %19, ptr noundef %2, i32 noundef 5, i32 noundef 1, i32 noundef -2147483648) #18
  %21 = load i32, ptr @hf_epl_pres_rs, align 4
  %22 = tail call ptr @proto_tree_add_item(ptr noundef %1, i32 noundef %21, ptr noundef %2, i32 noundef 5, i32 noundef 1, i32 noundef -2147483648) #18
  %23 = tail call zeroext i8 @tvb_get_guint8(ptr noundef %2, i32 noundef 6) #18
  %24 = load i32, ptr @hf_epl_pres_pdov, align 4
  %25 = tail call ptr @proto_tree_add_item(ptr noundef %1, i32 noundef %24, ptr noundef %2, i32 noundef 6, i32 noundef 1, i32 noundef -2147483648) #18
  %26 = tail call zeroext i16 @tvb_get_letohs(ptr noundef %2, i32 noundef 8) #18
  %27 = load i32, ptr @hf_epl_pres_size, align 4
  %28 = zext i16 %26 to i32
  %29 = tail call ptr @proto_tree_add_uint(ptr noundef %1, i32 noundef %27, ptr noundef %2, i32 noundef 8, i32 noundef 2, i32 noundef %28) #18
  %30 = getelementptr inbounds nuw i8, ptr %3, i64 8
  %31 = load ptr, ptr %30, align 8
  tail call void (ptr, i32, ptr, ...) @col_append_fstr(ptr noundef %31, i32 noundef 25, ptr noundef nonnull @.str.688, i32 noundef %28) #18
  %32 = load ptr, ptr %30, align 8
  %33 = zext i8 %10 to i32
  %34 = and i32 %33, 1
  %35 = lshr i32 %33, 4
  %36 = and i32 %35, 1
  %37 = zext i8 %14 to i32
  %38 = and i32 %37, 7
  %39 = lshr i32 %37, 3
  %40 = and i32 %39, 7
  %41 = zext i8 %23 to i32
  %42 = lshr i32 %41, 4
  %43 = and i32 %41, 15
  tail call void (ptr, i32, ptr, ...) @col_append_fstr(ptr noundef %32, i32 noundef 25, ptr noundef nonnull @.str.689, i32 noundef %34, i32 noundef %36, i32 noundef %38, i32 noundef %40, i32 noundef %42, i32 noundef %43) #18
  %44 = load i32, ptr %6, align 4
  %.not64 = icmp eq i32 %44, 240
  %epl_nmt_ms_vals.sink = select i1 %.not64, ptr @epl_nmt_ms_vals, ptr @epl_nmt_cs_vals
  %45 = load ptr, ptr %30, align 8
  %46 = zext i8 %5 to i32
  %47 = tail call ptr @val_to_str(i32 noundef %46, ptr noundef nonnull %epl_nmt_ms_vals.sink, ptr noundef nonnull @.str.691) #18
  tail call void (ptr, i32, ptr, ...) @col_append_fstr(ptr noundef %45, i32 noundef 25, ptr noundef nonnull @.str.690, ptr noundef %47) #18
  %48 = tail call fastcc i32 @dissect_epl_pdo(ptr noundef %0, ptr noundef %1, ptr noundef %2, ptr noundef nonnull %3, i32 noundef %28, i8 noundef zeroext 4)
  ret i32 %48
}